; Function Attrs: mustprogress uwtable
define void @_ZN4cvc58internal9LogicInfo28enableCardinalityConstraintsEv(ptr noundef nonnull align 8 dereferenceable(88) %this) local_unnamed_addr #3 align 2 personality ptr @__gxx_personality_v0 {
entry:
  %ref.tmp = alloca %"class.std::__cxx11::basic_string", align 8
  %d_locked = getelementptr inbounds i8, ptr %this, i64 87
  %0 = load i8, ptr %d_locked, align 1
  %1 = and i8 %0, 1
  %tobool.not = icmp eq i8 %1, 0
  br i1 %tobool.not, label %do.end, label %if.then

if.then:                                          ; preds = %entry
  %exception = tail call ptr @__cxa_allocate_exception(i64 40) #14
  invoke void (ptr, ptr, ...) @_ZN4cvc58internal24IllegalArgumentException14formatVariadicB5cxx11EPKcz(ptr nonnull sret(%"class.std::__cxx11::basic_string") align 8 %ref.tmp, ptr noundef nonnull @.str.41)
          to label %invoke.cont unwind label %ehcleanup.thread

invoke.cont:                                      ; preds = %if.then
  %call = call noundef ptr @_ZNKSt7__cxx1112basic_stringIcSt11char_traitsIcESaIcEE5c_strEv(ptr noundef nonnull align 8 dereferenceable(32) %ref.tmp) #14
  invoke void @_ZN4cvc58internal24IllegalArgumentExceptionC2EPKcS3_S3_S3_(ptr noundef nonnull align 8 dereferenceable(40) %exception, ptr noundef nonnull @.str.40, ptr noundef nonnull @.str.2, ptr noundef nonnull @__PRETTY_FUNCTION__._ZN4cvc58internal9LogicInfo28enableCardinalityConstraintsEv, ptr noundef %call)
          to label %invoke.cont4 unwind label %ehcleanup.thread6

ehcleanup.thread6:                                ; preds = %invoke.cont
  %2 = landingpad { ptr, i32 }
          cleanup
  call void @_ZNSt7__cxx1112basic_stringIcSt11char_traitsIcESaIcEED1Ev(ptr noundef nonnull align 8 dereferenceable(32) %ref.tmp) #14
  br label %cleanup.action

invoke.cont4:                                     ; preds = %invoke.cont
  invoke void @__cxa_throw(ptr nonnull %exception, ptr nonnull @_ZTIN4cvc58internal24IllegalArgumentExceptionE, ptr nonnull @_ZN4cvc58internal24IllegalArgumentExceptionD2Ev) #16
          to label %unreachable unwind label %ehcleanup

ehcleanup.thread:                                 ; preds = %if.then
  %3 = landingpad { ptr, i32 }
          cleanup
  br label %cleanup.action

ehcleanup:                                        ; preds = %invoke.cont4
  %4 = landingpad { ptr, i32 }
          cleanup
  call void @_ZNSt7__cxx1112basic_stringIcSt11char_traitsIcESaIcEED1Ev(ptr noundef nonnull align 8 dereferenceable(32) %ref.tmp) #14
  br label %eh.resume

cleanup.action:                                   ; preds = %ehcleanup.thread6, %ehcleanup.thread
  %.pn5 = phi { ptr, i32 } [ %3, %ehcleanup.thread ], [ %2, %ehcleanup.thread6 ]
  call void @__cxa_free_exception(ptr %exception) #14
  br label %eh.resume

do.end:                                           ; preds = %entry
  %call5 = tail call noundef nonnull align 8 dereferenceable(32) ptr @_ZNSt7__cxx1112basic_stringIcSt11char_traitsIcESaIcEEaSEPKc(ptr noundef nonnull align 8 dereferenceable(32) %this, ptr noundef nonnull @.str)
  %d_cardinalityConstraints = getelementptr inbounds i8, ptr %this, i64 85
  store i8 1, ptr %d_cardinalityConstraints, align 1
  ret void

eh.resume:                                        ; preds = %ehcleanup, %cleanup.action
  %.pn4 = phi { ptr, i32 } [ %4, %ehcleanup ], [ %.pn5, %cleanup.action ]
  resume { ptr, i32 } %.pn4

unreachable:                                      ; preds = %invoke.cont4
  unreachable
}